; Function Attrs: nounwind uwtable
define dso_local void @prep_status_progress(ptr noundef %0, ...) local_unnamed_addr #0 {
  %2 = alloca [1 x %struct.__va_list_tag], align 16
  %3 = alloca [1024 x i8], align 16
  call void @llvm.lifetime.start.p0(i64 24, ptr nonnull %2) #11
  call void @llvm.lifetime.start.p0(i64 1024, ptr nonnull %3) #11
  call void @llvm.va_start.p0(ptr nonnull %2)
  %4 = call i32 @pg_vsnprintf(ptr noundef nonnull %3, i64 noundef 1024, ptr noundef %0, ptr noundef nonnull %2) #11
  call void @llvm.va_end.p0(ptr nonnull %2)
  %5 = load i8, ptr getelementptr inbounds nuw (i8, ptr @log_opts, i64 48), align 8, !range !4, !noundef !5
  %6 = trunc nuw i8 %5 to i1
  %7 = load i8, ptr getelementptr inbounds nuw (i8, ptr @log_opts, i64 8), align 8, !range !4
  %8 = trunc nuw i8 %7 to i1
  %9 = select i1 %6, i1 true, i1 %8
  %.sink = select i1 %9, i32 3, i32 2
  call void (i32, ptr, ...) @pg_log(i32 noundef %.sink, ptr noundef nonnull @.str.1, i32 noundef 62, ptr noundef nonnull %3)
  call void @llvm.lifetime.end.p0(i64 1024, ptr nonnull %3) #11
  call void @llvm.lifetime.end.p0(i64 24, ptr nonnull %2) #11
  ret void
}